target datalayout = "e-m:e-p270:32:32-p271:32:32-p272:64:64-i64:64-i128:128-f80:128-n8:16:32:64-S128"
target triple = "x86_64-pc-linux-gnu"

%struct.Node = type { i32 }
%struct.Expr = type { i32 }
%struct.Const = type { %struct.Expr, i32, i32, i32, i32, i64, i8, i8, i32 }

; Function Attrs: inlinehint nounwind uwtable
define internal i64 @PointerGetDatum(ptr noundef %0) #2 {
  %2 = alloca ptr, align 8
  store ptr %0, ptr %2, align 8
  %3 = load ptr, ptr %2, align 8
  %4 = ptrtoint ptr %3 to i64
  ret i64 %4
}

; Function Attrs: inlinehint nounwind uwtable
define internal ptr @DatumGetPointer(i64 noundef %0) #2 {
  %2 = alloca i64, align 8
  store i64 %0, ptr %2, align 8
  %3 = load i64, ptr %2, align 8
  %4 = inttoptr i64 %3 to ptr
  ret ptr %4
}

; Function Attrs: inlinehint nounwind uwtable
define internal ptr @newNode(i64 noundef %0, i32 noundef %1) #2 {
  %3 = alloca i64, align 8
  %4 = alloca i32, align 4
  %5 = alloca ptr, align 8
  store i64 %0, ptr %3, align 8
  store i32 %1, ptr %4, align 4
  call void @llvm.lifetime.start.p0(i64 8, ptr %5) #6
  %6 = load i64, ptr %3, align 8
  %7 = call ptr @palloc0(i64 noundef %6)
  store ptr %7, ptr %5, align 8
  %8 = load i32, ptr %4, align 4
  %9 = load ptr, ptr %5, align 8
  %10 = getelementptr inbounds nuw %struct.Node, ptr %9, i32 0, i32 0
  store i32 %8, ptr %10, align 4
  %11 = load ptr, ptr %5, align 8
  call void @llvm.lifetime.end.p0(i64 8, ptr %5) #6
  ret ptr %11
}

; Function Attrs: nounwind uwtable
define dso_local ptr @makeConst(i32 noundef %0, i32 noundef %1, i32 noundef %2, i32 noundef %3, i64 noundef %4, i1 noundef zeroext %5, i1 noundef zeroext %6) #0 {
  %8 = alloca i32, align 4
  %9 = alloca i32, align 4
  %10 = alloca i32, align 4
  %11 = alloca i32, align 4
  %12 = alloca i64, align 8
  %13 = alloca i8, align 1
  %14 = alloca i8, align 1
  %15 = alloca ptr, align 8
  store i32 %0, ptr %8, align 4
  store i32 %1, ptr %9, align 4
  store i32 %2, ptr %10, align 4
  store i32 %3, ptr %11, align 4
  store i64 %4, ptr %12, align 8
  %16 = zext i1 %5 to i8
  store i8 %16, ptr %13, align 1
  %17 = zext i1 %6 to i8
  store i8 %17, ptr %14, align 1
  call void @llvm.lifetime.start.p0(i64 8, ptr %15) #6
  %18 = call ptr @newNode(i64 noundef 40, i32 noundef 7)
  store ptr %18, ptr %15, align 8
  %19 = load i8, ptr %13, align 1, !range !4, !noundef !5
  %20 = trunc i8 %19 to i1
  br i1 %20, label %29, label %21

21:                                               ; preds = %7
  %22 = load i32, ptr %11, align 4
  %23 = icmp eq i32 %22, -1
  br i1 %23, label %24, label %29

24:                                               ; preds = %21
  %25 = load i64, ptr %12, align 8
  %26 = call ptr @DatumGetPointer(i64 noundef %25)
  %27 = call ptr @pg_detoast_datum(ptr noundef %26)
  %28 = call i64 @PointerGetDatum(ptr noundef %27)
  store i64 %28, ptr %12, align 8
  br label %29

29:                                               ; preds = %24, %21, %7
  %30 = load i32, ptr %8, align 4
  %31 = load ptr, ptr %15, align 8
  %32 = getelementptr inbounds nuw %struct.Const, ptr %31, i32 0, i32 1
  store i32 %30, ptr %32, align 4
  %33 = load i32, ptr %9, align 4
  %34 = load ptr, ptr %15, align 8
  %35 = getelementptr inbounds nuw %struct.Const, ptr %34, i32 0, i32 2
  store i32 %33, ptr %35, align 8
  %36 = load i32, ptr %10, align 4
  %37 = load ptr, ptr %15, align 8
  %38 = getelementptr inbounds nuw %struct.Const, ptr %37, i32 0, i32 3
  store i32 %36, ptr %38, align 4
  %39 = load i32, ptr %11, align 4
  %40 = load ptr, ptr %15, align 8
  %41 = getelementptr inbounds nuw %struct.Const, ptr %40, i32 0, i32 4
  store i32 %39, ptr %41, align 8
  %42 = load i64, ptr %12, align 8
  %43 = load ptr, ptr %15, align 8
  %44 = getelementptr inbounds nuw %struct.Const, ptr %43, i32 0, i32 5
  store i64 %42, ptr %44, align 8
  %45 = load i8, ptr %13, align 1, !range !4, !noundef !5
  %46 = trunc i8 %45 to i1
  %47 = load ptr, ptr %15, align 8
  %48 = getelementptr inbounds nuw %struct.Const, ptr %47, i32 0, i32 6
  %49 = zext i1 %46 to i8
  store i8 %49, ptr %48, align 8
  %50 = load i8, ptr %14, align 1, !range !4, !noundef !5
  %51 = trunc i8 %50 to i1
  %52 = load ptr, ptr %15, align 8
  %53 = getelementptr inbounds nuw %struct.Const, ptr %52, i32 0, i32 7
  %54 = zext i1 %51 to i8
  store i8 %54, ptr %53, align 1
  %55 = load ptr, ptr %15, align 8
  %56 = getelementptr inbounds nuw %struct.Const, ptr %55, i32 0, i32 8
  store i32 -1, ptr %56, align 4
  %57 = load ptr, ptr %15, align 8
  call void @llvm.lifetime.end.p0(i64 8, ptr %15) #6
  ret ptr %57
}

; Function Attrs: inlinehint nounwind uwtable
define internal i64 @BoolGetDatum(i1 noundef zeroext %0) #2 {
  %2 = alloca i8, align 1
  %3 = zext i1 %0 to i8
  store i8 %3, ptr %2, align 1
  %4 = load i8, ptr %2, align 1, !range !4, !noundef !5
  %5 = trunc i8 %4 to i1
  %6 = select i1 %5, i32 1, i32 0
  %7 = sext i32 %6 to i64
  ret i64 %7
}

; Function Attrs: nounwind uwtable
define dso_local ptr @makeBoolConst(i1 noundef zeroext %0, i1 noundef zeroext %1) #0 {
  %3 = alloca i8, align 1
  %4 = alloca i8, align 1
  %5 = zext i1 %0 to i8
  store i8 %5, ptr %3, align 1
  %6 = zext i1 %1 to i8
  store i8 %6, ptr %4, align 1
  %7 = load i8, ptr %3, align 1, !range !4, !noundef !5
  %8 = trunc i8 %7 to i1
  %9 = call i64 @BoolGetDatum(i1 noundef zeroext %8)
  %10 = load i8, ptr %4, align 1, !range !4, !noundef !5
  %11 = trunc i8 %10 to i1
  %12 = call ptr @makeConst(i32 noundef 16, i32 noundef -1, i32 noundef 0, i32 noundef 1, i64 noundef %9, i1 noundef zeroext %11, i1 noundef zeroext true)
  ret ptr %12
}