; Function Attrs: nounwind uwtable
define dso_local noundef ptr @makeBoolConst(i1 noundef zeroext %0, i1 noundef zeroext %1) local_unnamed_addr #0 {
  %3 = zext i1 %0 to i64
  %4 = tail call noundef ptr @palloc0(i64 noundef 40) #7
  store i32 7, ptr %4, align 4
  %5 = zext i1 %1 to i8
  %6 = getelementptr inbounds nuw i8, ptr %4, i64 4
  store i32 16, ptr %6, align 4
  %7 = getelementptr inbounds nuw i8, ptr %4, i64 8
  store i32 -1, ptr %7, align 8
  %8 = getelementptr inbounds nuw i8, ptr %4, i64 12
  store i32 0, ptr %8, align 4
  %9 = getelementptr inbounds nuw i8, ptr %4, i64 16
  store i32 1, ptr %9, align 8
  %10 = getelementptr inbounds nuw i8, ptr %4, i64 24
  store i64 %3, ptr %10, align 8
  %11 = getelementptr inbounds nuw i8, ptr %4, i64 32
  store i8 %5, ptr %11, align 8
  %12 = getelementptr inbounds nuw i8, ptr %4, i64 33
  store i8 1, ptr %12, align 1
  %13 = getelementptr inbounds nuw i8, ptr %4, i64 36
  store i32 -1, ptr %13, align 4
  ret ptr %4
}